target datalayout = "e-m:e-p270:32:32-p271:32:32-p272:64:64-i64:64-i128:128-f80:128-n8:16:32:64-S128"
target triple = "x86_64-unknown-linux-gnu"

%"class.icu_75::TimeZoneRule" = type { %"class.icu_75::UObject", %"class.icu_75::UnicodeString", i32, i32 }
%"class.icu_75::UObject" = type { ptr }
%"class.icu_75::UnicodeString" = type { %"class.icu_75::Replaceable", %"union.icu_75::UnicodeString::StackBufferOrFields" }
%"class.icu_75::Replaceable" = type { %"class.icu_75::UObject" }
%"union.icu_75::UnicodeString::StackBufferOrFields" = type { %struct.anon.0, [32 x i8] }
%struct.anon.0 = type { i16, i32, i32, ptr }
%"class.icu_75::TimeArrayTimeZoneRule" = type { %"class.icu_75::TimeZoneRule", i32, i32, ptr, [32 x double] }

; Function Attrs: mustprogress uwtable
define noundef nonnull align 8 dereferenceable(80) ptr @_ZN6icu_7512TimeZoneRuleaSERKS0_(ptr noundef nonnull align 8 dereferenceable(80) %this, ptr noundef nonnull align 8 dereferenceable(80) %right) #0 align 2 {
entry:
  %this.addr = alloca ptr, align 8
  %right.addr = alloca ptr, align 8
  store ptr %this, ptr %this.addr, align 8
  store ptr %right, ptr %right.addr, align 8
  %this1 = load ptr, ptr %this.addr, align 8
  %0 = load ptr, ptr %right.addr, align 8
  %cmp = icmp ne ptr %this1, %0
  br i1 %cmp, label %if.then, label %if.end

if.then:                                          ; preds = %entry
  %1 = load ptr, ptr %right.addr, align 8
  %fName = getelementptr inbounds %"class.icu_75::TimeZoneRule", ptr %1, i32 0, i32 1
  %fName2 = getelementptr inbounds %"class.icu_75::TimeZoneRule", ptr %this1, i32 0, i32 1
  %call = call noundef nonnull align 8 dereferenceable(64) ptr @_ZN6icu_7513UnicodeStringaSERKS0_(ptr noundef nonnull align 8 dereferenceable(64) %fName2, ptr noundef nonnull align 8 dereferenceable(64) %fName)
  %2 = load ptr, ptr %right.addr, align 8
  %fRawOffset = getelementptr inbounds %"class.icu_75::TimeZoneRule", ptr %2, i32 0, i32 2
  %3 = load i32, ptr %fRawOffset, align 8
  %fRawOffset3 = getelementptr inbounds %"class.icu_75::TimeZoneRule", ptr %this1, i32 0, i32 2
  store i32 %3, ptr %fRawOffset3, align 8
  %4 = load ptr, ptr %right.addr, align 8
  %fDSTSavings = getelementptr inbounds %"class.icu_75::TimeZoneRule", ptr %4, i32 0, i32 3
  %5 = load i32, ptr %fDSTSavings, align 4
  %fDSTSavings4 = getelementptr inbounds %"class.icu_75::TimeZoneRule", ptr %this1, i32 0, i32 3
  store i32 %5, ptr %fDSTSavings4, align 4
  br label %if.end

if.end:                                           ; preds = %if.then, %entry
  ret ptr %this1
}

; Function Attrs: mustprogress uwtable
define noundef nonnull align 8 dereferenceable(352) ptr @_ZN6icu_7521TimeArrayTimeZoneRuleaSERKS0_(ptr noundef nonnull align 8 dereferenceable(352) %this, ptr noundef nonnull align 8 dereferenceable(352) %right) #0 align 2 {
entry:
  %this.addr = alloca ptr, align 8
  %right.addr = alloca ptr, align 8
  %status = alloca i32, align 4
  store ptr %this, ptr %this.addr, align 8
  store ptr %right, ptr %right.addr, align 8
  %this1 = load ptr, ptr %this.addr, align 8
  %0 = load ptr, ptr %right.addr, align 8
  %cmp = icmp ne ptr %this1, %0
  br i1 %cmp, label %if.then, label %if.end

if.then:                                          ; preds = %entry
  %1 = load ptr, ptr %right.addr, align 8
  %call = call noundef nonnull align 8 dereferenceable(80) ptr @_ZN6icu_7512TimeZoneRuleaSERKS0_(ptr noundef nonnull align 8 dereferenceable(80) %this1, ptr noundef nonnull align 8 dereferenceable(80) %1)
  store i32 0, ptr %status, align 4
  %2 = load ptr, ptr %right.addr, align 8
  %fStartTimes = getelementptr inbounds %"class.icu_75::TimeArrayTimeZoneRule", ptr %2, i32 0, i32 3
  %3 = load ptr, ptr %fStartTimes, align 8
  %4 = load ptr, ptr %right.addr, align 8
  %fNumStartTimes = getelementptr inbounds %"class.icu_75::TimeArrayTimeZoneRule", ptr %4, i32 0, i32 2
  %5 = load i32, ptr %fNumStartTimes, align 4
  %call2 = call noundef signext i8 @_ZN6icu_7521TimeArrayTimeZoneRule14initStartTimesEPKdiR10UErrorCode(ptr noundef nonnull align 8 dereferenceable(352) %this1, ptr noundef %3, i32 noundef %5, ptr noundef nonnull align 4 dereferenceable(4) %status)
  %6 = load ptr, ptr %right.addr, align 8
  %fTimeRuleType = getelementptr inbounds %"class.icu_75::TimeArrayTimeZoneRule", ptr %6, i32 0, i32 1
  %7 = load i32, ptr %fTimeRuleType, align 8
  %fTimeRuleType3 = getelementptr inbounds %"class.icu_75::TimeArrayTimeZoneRule", ptr %this1, i32 0, i32 1
  store i32 %7, ptr %fTimeRuleType3, align 8
  br label %if.end

if.end:                                           ; preds = %if.then, %entry
  ret ptr %this1
}