; Function Attrs: mustprogress uwtable
define noundef nonnull align 8 dereferenceable(352) ptr @_ZN6icu_7521TimeArrayTimeZoneRuleaSERKS0_(ptr noundef nonnull returned align 8 dereferenceable(352) %this, ptr noundef nonnull align 8 dereferenceable(352) %right) local_unnamed_addr #0 align 2 {
entry:
  %status = alloca i32, align 4
  %cmp.not = icmp eq ptr %this, %right
  br i1 %cmp.not, label %if.end, label %_ZN6icu_7512TimeZoneRuleaSERKS0_.exit

_ZN6icu_7512TimeZoneRuleaSERKS0_.exit:            ; preds = %entry
  %fName.i = getelementptr inbounds i8, ptr %right, i64 8
  %fName2.i = getelementptr inbounds i8, ptr %this, i64 8
  %call.i = tail call noundef nonnull align 8 dereferenceable(64) ptr @_ZN6icu_7513UnicodeStringaSERKS0_(ptr noundef nonnull align 8 dereferenceable(64) %fName2.i, ptr noundef nonnull align 8 dereferenceable(64) %fName.i)
  %fRawOffset.i = getelementptr inbounds i8, ptr %right, i64 72
  %0 = load i32, ptr %fRawOffset.i, align 8
  %fRawOffset3.i = getelementptr inbounds i8, ptr %this, i64 72
  store i32 %0, ptr %fRawOffset3.i, align 8
  %fDSTSavings.i = getelementptr inbounds i8, ptr %right, i64 76
  %1 = load i32, ptr %fDSTSavings.i, align 4
  %fDSTSavings4.i = getelementptr inbounds i8, ptr %this, i64 76
  store i32 %1, ptr %fDSTSavings4.i, align 4
  store i32 0, ptr %status, align 4
  %fStartTimes = getelementptr inbounds i8, ptr %right, i64 88
  %2 = load ptr, ptr %fStartTimes, align 8
  %fNumStartTimes = getelementptr inbounds i8, ptr %right, i64 84
  %3 = load i32, ptr %fNumStartTimes, align 4
  %call2 = call noundef signext i8 @_ZN6icu_7521TimeArrayTimeZoneRule14initStartTimesEPKdiR10UErrorCode(ptr noundef nonnull align 8 dereferenceable(352) %this, ptr noundef %2, i32 noundef %3, ptr noundef nonnull align 4 dereferenceable(4) %status), !range !4
  %fTimeRuleType = getelementptr inbounds i8, ptr %right, i64 80
  %4 = load i32, ptr %fTimeRuleType, align 8
  %fTimeRuleType3 = getelementptr inbounds i8, ptr %this, i64 80
  store i32 %4, ptr %fTimeRuleType3, align 8
  br label %if.end

if.end:                                           ; preds = %_ZN6icu_7512TimeZoneRuleaSERKS0_.exit, %entry
  ret ptr %this
}